; Function Attrs: mustprogress uwtable
define dso_local void @_ZN19cmUVJobServerClient12RequestTokenEv(ptr nocapture noundef nonnull readonly align 8 dereferenceable(8) %0) local_unnamed_addr #3 align 2 {
  %2 = load ptr, ptr %0, align 8
  %3 = getelementptr inbounds i8, ptr %2, i64 96
  %4 = load i32, ptr %3, align 8
  %5 = icmp eq i32 %4, 0
  br i1 %5, label %6, label %12

6:                                                ; preds = %1
  %7 = getelementptr inbounds i8, ptr %2, i64 16
  %8 = tail call noundef ptr @_ZNK2cm19uv_handle_ptr_base_I9uv_idle_sEcvP11uv_handle_sEv(ptr noundef nonnull align 8 dereferenceable(16) %7)
  %9 = tail call i32 @uv_is_active(ptr noundef %8)
  %.not.i = icmp eq i32 %9, 0
  br i1 %.not.i, label %10, label %12

10:                                               ; preds = %6
  %11 = tail call noundef i32 @_ZN2cm11uv_idle_ptr5startEPFvP9uv_idle_sE(ptr noundef nonnull align 8 dereferenceable(16) %7, ptr noundef nonnull @"_ZZN19cmUVJobServerClient4Impl20RequestImplicitTokenEvEN3$_08__invokeEP9uv_idle_s")
  br label %_ZN19cmUVJobServerClient4Impl12RequestTokenEv.exit

12:                                               ; preds = %6, %1
  %13 = getelementptr inbounds i8, ptr %2, i64 100
  %14 = load i32, ptr %13, align 4
  %15 = add i32 %14, 1
  store i32 %15, ptr %13, align 4
  %16 = load ptr, ptr %2, align 8
  %17 = getelementptr inbounds i8, ptr %16, i64 24
  %18 = load ptr, ptr %17, align 8
  tail call void %18(ptr noundef nonnull align 8 dereferenceable(104) %2)
  br label %_ZN19cmUVJobServerClient4Impl12RequestTokenEv.exit

_ZN19cmUVJobServerClient4Impl12RequestTokenEv.exit: ; preds = %10, %12
  ret void
}